target datalayout = "e-m:e-p270:32:32-p271:32:32-p272:64:64-i64:64-i128:128-f80:128-n8:16:32:64-S128"
target triple = "x86_64-pc-linux-gnu"

%struct.H5FS_t = type { %struct.H5C_cache_entry_t, i64, i64, i64, i64, i32, i16, i32, i32, i32, i64, i64, i64, i64, i32, i64, i64, ptr, i8, i32, i8, i8, i32, i64, i64, i64, ptr }
%struct.H5C_cache_entry_t = type { ptr, i64, i64, ptr, i8, ptr, i8, i8, i8, i8, i32, i8, i8, i8, i8, i8, i32, ptr, i32, i32, i32, i32, i32, i8, i8, ptr, ptr, ptr, ptr, ptr, ptr, i8, i32, i8, i64, ptr, i64, i64, i32, i8, i32, i32, i8, ptr, ptr, ptr }

@.str.2 = private unnamed_addr constant [98 x i8] c"generated/home/dtcxzyw/WorkSpace/Projects/compilers/llvm-opt-benchmark/bench/hdf5/hdf5/src/H5FS.c\00", align 1
@H5E_FSPACE_g = external global i64, align 8
@__func__.H5FS__incr = private unnamed_addr constant [11 x i8] c"H5FS__incr\00", align 1
@H5E_CANTPIN_g = external global i64, align 8
@.str.23 = private unnamed_addr constant [32 x i8] c"unable to pin free space header\00", align 1

; Function Attrs: nounwind uwtable
define i32 @H5FS__incr(ptr noundef %0) #0 {
  %2 = alloca ptr, align 8
  %3 = alloca i32, align 4
  %4 = alloca i8, align 1
  store ptr %0, ptr %2, align 8
  store i32 0, ptr %3, align 4
  store i8 0, ptr %4, align 1
  %5 = load ptr, ptr %2, align 8
  %6 = getelementptr inbounds %struct.H5FS_t, ptr %5, i32 0, i32 14
  %7 = load i32, ptr %6, align 8
  %8 = icmp eq i32 %7, 0
  br i1 %8, label %9, label %34

9:                                                ; preds = %1
  %10 = load ptr, ptr %2, align 8
  %11 = getelementptr inbounds %struct.H5FS_t, ptr %10, i32 0, i32 15
  %12 = load i64, ptr %11, align 8
  %13 = icmp ne i64 %12, -1
  br i1 %13, label %14, label %34

14:                                               ; preds = %9
  %15 = load ptr, ptr %2, align 8
  %16 = call i32 @H5AC_pin_protected_entry(ptr noundef %15)
  %17 = icmp slt i32 %16, 0
  br i1 %17, label %18, label %33

18:                                               ; preds = %14
  br label %19

19:                                               ; preds = %18
  br label %20

20:                                               ; preds = %19
  br label %21

21:                                               ; preds = %20
  %22 = load i64, ptr @H5E_FSPACE_g, align 8
  %23 = load i64, ptr @H5E_CANTPIN_g, align 8
  %24 = call i32 (ptr, ptr, i32, i64, i64, ptr, ...) @H5E_printf_stack(ptr noundef @.str.2, ptr noundef @__func__.H5FS__incr, i32 noundef 699, i64 noundef %22, i64 noundef %23, ptr noundef @.str.23)
  br label %25

25:                                               ; preds = %21
  store i8 1, ptr %4, align 1
  %26 = load i8, ptr %4, align 1
  %27 = trunc i8 %26 to i1
  %28 = zext i1 %27 to i8
  store i8 %28, ptr %4, align 1
  br label %29

29:                                               ; preds = %25
  br label %30

30:                                               ; preds = %29
  store i32 -1, ptr %3, align 4
  br label %39

31:                                               ; No predecessors!
  br label %32

32:                                               ; preds = %31
  br label %33

33:                                               ; preds = %32, %14
  br label %34

34:                                               ; preds = %33, %9, %1
  %35 = load ptr, ptr %2, align 8
  %36 = getelementptr inbounds %struct.H5FS_t, ptr %35, i32 0, i32 14
  %37 = load i32, ptr %36, align 8
  %38 = add i32 %37, 1
  store i32 %38, ptr %36, align 8
  br label %39

39:                                               ; preds = %34, %30
  %40 = load i32, ptr %3, align 4
  ret i32 %40
}