; Function Attrs: nounwind uwtable
define range(i32 -1, 1) i32 @H5FS__incr(ptr noundef %0) local_unnamed_addr #0 {
  %2 = getelementptr inbounds i8, ptr %0, i64 336
  %3 = load i32, ptr %2, align 8
  %4 = icmp eq i32 %3, 0
  br i1 %4, label %5, label %15

5:                                                ; preds = %1
  %6 = getelementptr inbounds i8, ptr %0, i64 344
  %7 = load i64, ptr %6, align 8
  %.not = icmp eq i64 %7, -1
  br i1 %.not, label %15, label %8

8:                                                ; preds = %5
  %9 = tail call i32 @H5AC_pin_protected_entry(ptr noundef nonnull %0) #5
  %10 = icmp slt i32 %9, 0
  br i1 %10, label %11, label %._crit_edge

._crit_edge:                                      ; preds = %8
  %.pre = load i32, ptr %2, align 8
  br label %15

11:                                               ; preds = %8
  %12 = load i64, ptr @H5E_FSPACE_g, align 8
  %13 = load i64, ptr @H5E_CANTPIN_g, align 8
  %14 = tail call i32 (ptr, ptr, i32, i64, i64, ptr, ...) @H5E_printf_stack(ptr noundef nonnull @.str.2, ptr noundef nonnull @__func__.H5FS__incr, i32 noundef 699, i64 noundef %12, i64 noundef %13, ptr noundef nonnull @.str.23) #5
  br label %18

15:                                               ; preds = %._crit_edge, %5, %1
  %16 = phi i32 [ %.pre, %._crit_edge ], [ 0, %5 ], [ %3, %1 ]
  %17 = add i32 %16, 1
  store i32 %17, ptr %2, align 8
  br label %18

18:                                               ; preds = %15, %11
  %.0 = phi i32 [ -1, %11 ], [ 0, %15 ]
  ret i32 %.0
}